target datalayout = "e-m:e-p270:32:32-p271:32:32-p272:64:64-i64:64-i128:128-f80:128-n8:16:32:64-S128"
target triple = "x86_64-pc-linux-gnu"

%struct.yyguts_t = type { ptr, ptr, ptr, i64, i64, ptr, i8, i32, i32, ptr, i32, i32, i32, i32, i32, ptr, ptr, ptr, i32, i32, ptr, i32, i32, ptr, ptr }
%struct.core_yy_extra_type = type { ptr, i64, ptr, ptr, i32, i8, i8, ptr, i32, i32, i32, i32, ptr, i32, i32, i8, i8 }
%struct.ScannerCallbackState = type { ptr, i32, %struct.ErrorContextCallback }
%struct.ErrorContextCallback = type { ptr, ptr, ptr }

@error_context_stack = external global ptr, align 8
@.str.47 = private unnamed_addr constant [29 x i8] c"invalid Unicode escape value\00", align 1

; Function Attrs: inlinehint nounwind uwtable
define internal i32 @pg_leftmost_one_pos32(i32 noundef %0) #4 {
  %2 = alloca i32, align 4
  store i32 %0, ptr %2, align 4
  %3 = load i32, ptr %2, align 4
  %4 = call i32 @llvm.ctlz.i32(i32 %3, i1 true)
  %5 = sub i32 31, %4
  ret i32 %5
}

; Function Attrs: inlinehint nounwind uwtable
define internal i32 @pg_nextpower2_32(i32 noundef %0) #4 {
  %2 = alloca i32, align 4
  %3 = alloca i32, align 4
  store i32 %0, ptr %3, align 4
  %4 = load i32, ptr %3, align 4
  %5 = load i32, ptr %3, align 4
  %6 = sub i32 %5, 1
  %7 = and i32 %4, %6
  %8 = icmp eq i32 %7, 0
  br i1 %8, label %9, label %11

9:                                                ; preds = %1
  %10 = load i32, ptr %3, align 4
  store i32 %10, ptr %2, align 4
  br label %16

11:                                               ; preds = %1
  %12 = load i32, ptr %3, align 4
  %13 = call i32 @pg_leftmost_one_pos32(i32 noundef %12)
  %14 = add i32 %13, 1
  %15 = shl i32 1, %14
  store i32 %15, ptr %2, align 4
  br label %16

16:                                               ; preds = %11, %9
  %17 = load i32, ptr %2, align 4
  ret i32 %17
}

; Function Attrs: nounwind uwtable
define internal void @addlit(ptr noundef %0, i32 noundef %1, ptr noundef %2) #0 {
  %4 = alloca ptr, align 8
  %5 = alloca i32, align 4
  %6 = alloca ptr, align 8
  store ptr %0, ptr %4, align 8
  store i32 %1, ptr %5, align 4
  store ptr %2, ptr %6, align 8
  %7 = load ptr, ptr %6, align 8
  %8 = getelementptr inbounds nuw %struct.yyguts_t, ptr %7, i32 0, i32 0
  %9 = load ptr, ptr %8, align 8
  %10 = getelementptr inbounds nuw %struct.core_yy_extra_type, ptr %9, i32 0, i32 8
  %11 = load i32, ptr %10, align 8
  %12 = load i32, ptr %5, align 4
  %13 = add i32 %11, %12
  %14 = load ptr, ptr %6, align 8
  %15 = getelementptr inbounds nuw %struct.yyguts_t, ptr %14, i32 0, i32 0
  %16 = load ptr, ptr %15, align 8
  %17 = getelementptr inbounds nuw %struct.core_yy_extra_type, ptr %16, i32 0, i32 9
  %18 = load i32, ptr %17, align 4
  %19 = icmp sge i32 %13, %18
  br i1 %19, label %20, label %50

20:                                               ; preds = %3
  %21 = load ptr, ptr %6, align 8
  %22 = getelementptr inbounds nuw %struct.yyguts_t, ptr %21, i32 0, i32 0
  %23 = load ptr, ptr %22, align 8
  %24 = getelementptr inbounds nuw %struct.core_yy_extra_type, ptr %23, i32 0, i32 8
  %25 = load i32, ptr %24, align 8
  %26 = load i32, ptr %5, align 4
  %27 = add i32 %25, %26
  %28 = add i32 %27, 1
  %29 = call i32 @pg_nextpower2_32(i32 noundef %28)
  %30 = load ptr, ptr %6, align 8
  %31 = getelementptr inbounds nuw %struct.yyguts_t, ptr %30, i32 0, i32 0
  %32 = load ptr, ptr %31, align 8
  %33 = getelementptr inbounds nuw %struct.core_yy_extra_type, ptr %32, i32 0, i32 9
  store i32 %29, ptr %33, align 4
  %34 = load ptr, ptr %6, align 8
  %35 = getelementptr inbounds nuw %struct.yyguts_t, ptr %34, i32 0, i32 0
  %36 = load ptr, ptr %35, align 8
  %37 = getelementptr inbounds nuw %struct.core_yy_extra_type, ptr %36, i32 0, i32 7
  %38 = load ptr, ptr %37, align 8
  %39 = load ptr, ptr %6, align 8
  %40 = getelementptr inbounds nuw %struct.yyguts_t, ptr %39, i32 0, i32 0
  %41 = load ptr, ptr %40, align 8
  %42 = getelementptr inbounds nuw %struct.core_yy_extra_type, ptr %41, i32 0, i32 9
  %43 = load i32, ptr %42, align 4
  %44 = sext i32 %43 to i64
  %45 = call ptr @repalloc(ptr noundef %38, i64 noundef %44)
  %46 = load ptr, ptr %6, align 8
  %47 = getelementptr inbounds nuw %struct.yyguts_t, ptr %46, i32 0, i32 0
  %48 = load ptr, ptr %47, align 8
  %49 = getelementptr inbounds nuw %struct.core_yy_extra_type, ptr %48, i32 0, i32 7
  store ptr %45, ptr %49, align 8
  br label %50

50:                                               ; preds = %20, %3
  %51 = load ptr, ptr %6, align 8
  %52 = getelementptr inbounds nuw %struct.yyguts_t, ptr %51, i32 0, i32 0
  %53 = load ptr, ptr %52, align 8
  %54 = getelementptr inbounds nuw %struct.core_yy_extra_type, ptr %53, i32 0, i32 7
  %55 = load ptr, ptr %54, align 8
  %56 = load ptr, ptr %6, align 8
  %57 = getelementptr inbounds nuw %struct.yyguts_t, ptr %56, i32 0, i32 0
  %58 = load ptr, ptr %57, align 8
  %59 = getelementptr inbounds nuw %struct.core_yy_extra_type, ptr %58, i32 0, i32 8
  %60 = load i32, ptr %59, align 8
  %61 = sext i32 %60 to i64
  %62 = getelementptr inbounds i8, ptr %55, i64 %61
  %63 = load ptr, ptr %4, align 8
  %64 = load i32, ptr %5, align 4
  %65 = sext i32 %64 to i64
  call void @llvm.memcpy.p0.p0.i64(ptr align 1 %62, ptr align 1 %63, i64 %65, i1 false)
  %66 = load i32, ptr %5, align 4
  %67 = load ptr, ptr %6, align 8
  %68 = getelementptr inbounds nuw %struct.yyguts_t, ptr %67, i32 0, i32 0
  %69 = load ptr, ptr %68, align 8
  %70 = getelementptr inbounds nuw %struct.core_yy_extra_type, ptr %69, i32 0, i32 8
  %71 = load i32, ptr %70, align 8
  %72 = add i32 %71, %66
  store i32 %72, ptr %70, align 8
  ret void
}

; Function Attrs: nounwind uwtable
define dso_local void @cancel_scanner_errposition_callback(ptr noundef %0) #0 {
  %2 = alloca ptr, align 8
  store ptr %0, ptr %2, align 8
  %3 = load ptr, ptr %2, align 8
  %4 = getelementptr inbounds nuw %struct.ScannerCallbackState, ptr %3, i32 0, i32 2
  %5 = getelementptr inbounds nuw %struct.ErrorContextCallback, ptr %4, i32 0, i32 0
  %6 = load ptr, ptr %5, align 8
  store ptr %6, ptr @error_context_stack, align 8
  ret void
}

; Function Attrs: nounwind uwtable
define dso_local void @setup_scanner_errposition_callback(ptr noundef %0, ptr noundef %1, i32 noundef %2) #0 {
  %4 = alloca ptr, align 8
  %5 = alloca ptr, align 8
  %6 = alloca i32, align 4
  store ptr %0, ptr %4, align 8
  store ptr %1, ptr %5, align 8
  store i32 %2, ptr %6, align 4
  %7 = load ptr, ptr %5, align 8
  %8 = load ptr, ptr %4, align 8
  %9 = getelementptr inbounds nuw %struct.ScannerCallbackState, ptr %8, i32 0, i32 0
  store ptr %7, ptr %9, align 8
  %10 = load i32, ptr %6, align 4
  %11 = load ptr, ptr %4, align 8
  %12 = getelementptr inbounds nuw %struct.ScannerCallbackState, ptr %11, i32 0, i32 1
  store i32 %10, ptr %12, align 8
  %13 = load ptr, ptr %4, align 8
  %14 = getelementptr inbounds nuw %struct.ScannerCallbackState, ptr %13, i32 0, i32 2
  %15 = getelementptr inbounds nuw %struct.ErrorContextCallback, ptr %14, i32 0, i32 1
  store ptr @scb_error_callback, ptr %15, align 8
  %16 = load ptr, ptr %4, align 8
  %17 = load ptr, ptr %4, align 8
  %18 = getelementptr inbounds nuw %struct.ScannerCallbackState, ptr %17, i32 0, i32 2
  %19 = getelementptr inbounds nuw %struct.ErrorContextCallback, ptr %18, i32 0, i32 2
  store ptr %16, ptr %19, align 8
  %20 = load ptr, ptr @error_context_stack, align 8
  %21 = load ptr, ptr %4, align 8
  %22 = getelementptr inbounds nuw %struct.ScannerCallbackState, ptr %21, i32 0, i32 2
  %23 = getelementptr inbounds nuw %struct.ErrorContextCallback, ptr %22, i32 0, i32 0
  store ptr %20, ptr %23, align 8
  %24 = load ptr, ptr %4, align 8
  %25 = getelementptr inbounds nuw %struct.ScannerCallbackState, ptr %24, i32 0, i32 2
  store ptr %25, ptr @error_context_stack, align 8
  ret void
}

; Function Attrs: inlinehint nounwind uwtable
define internal zeroext i1 @is_valid_unicode_codepoint(i32 noundef %0) #4 {
  %2 = alloca i32, align 4
  store i32 %0, ptr %2, align 4
  %3 = load i32, ptr %2, align 4
  %4 = icmp ugt i32 %3, 0
  br i1 %4, label %5, label %8

5:                                                ; preds = %1
  %6 = load i32, ptr %2, align 4
  %7 = icmp ule i32 %6, 1114111
  br label %8

8:                                                ; preds = %5, %1
  %9 = phi i1 [ false, %1 ], [ %7, %5 ]
  ret i1 %9
}

; Function Attrs: nounwind uwtable
define internal void @addunicode(i32 noundef %0, ptr noundef %1) #0 {
  %3 = alloca i32, align 4
  %4 = alloca ptr, align 8
  %5 = alloca %struct.ScannerCallbackState, align 8
  %6 = alloca [17 x i8], align 16
  store i32 %0, ptr %3, align 4
  store ptr %1, ptr %4, align 8
  call void @llvm.lifetime.start.p0(i64 40, ptr %5) #13
  call void @llvm.lifetime.start.p0(i64 17, ptr %6) #13
  %7 = load i32, ptr %3, align 4
  %8 = call zeroext i1 @is_valid_unicode_codepoint(i32 noundef %7)
  br i1 %8, label %11, label %9

9:                                                ; preds = %2
  %10 = load ptr, ptr %4, align 8
  call void @scanner_yyerror(ptr noundef @.str.47, ptr noundef %10) #14
  unreachable

11:                                               ; preds = %2
  %12 = load ptr, ptr %4, align 8
  %13 = load ptr, ptr %4, align 8
  %14 = getelementptr inbounds nuw %struct.yyguts_t, ptr %13, i32 0, i32 24
  %15 = load ptr, ptr %14, align 8
  %16 = load i32, ptr %15, align 4
  call void @setup_scanner_errposition_callback(ptr noundef %5, ptr noundef %12, i32 noundef %16)
  %17 = load i32, ptr %3, align 4
  %18 = getelementptr inbounds [17 x i8], ptr %6, i64 0, i64 0
  call void @pg_unicode_to_server(i32 noundef %17, ptr noundef %18)
  call void @cancel_scanner_errposition_callback(ptr noundef %5)
  %19 = getelementptr inbounds [17 x i8], ptr %6, i64 0, i64 0
  %20 = getelementptr inbounds [17 x i8], ptr %6, i64 0, i64 0
  %21 = call i64 @strlen(ptr noundef %20) #16
  %22 = trunc i64 %21 to i32
  %23 = load ptr, ptr %4, align 8
  call void @addlit(ptr noundef %19, i32 noundef %22, ptr noundef %23)
  call void @llvm.lifetime.end.p0(i64 17, ptr %6) #13
  call void @llvm.lifetime.end.p0(i64 40, ptr %5) #13
  ret void
}