; Function Attrs: nounwind uwtable
define internal fastcc void @addunicode(i32 noundef %0, ptr noundef %1) unnamed_addr #0 {
  %3 = alloca %struct.ScannerCallbackState, align 8
  %4 = alloca [17 x i8], align 16
  call void @llvm.lifetime.start.p0(i64 40, ptr nonnull %3) #22
  call void @llvm.lifetime.start.p0(i64 17, ptr nonnull %4) #22
  %5 = add i32 %0, -1
  %6 = icmp ult i32 %5, 1114111
  br i1 %6, label %8, label %7

7:                                                ; preds = %2
  tail call void @scanner_yyerror(ptr noundef nonnull @.str.47, ptr noundef %1) #23
  unreachable

8:                                                ; preds = %2
  %9 = getelementptr inbounds nuw i8, ptr %1, i64 152
  %10 = load ptr, ptr %9, align 8
  %11 = load i32, ptr %10, align 4
  store ptr %1, ptr %3, align 8
  %12 = getelementptr inbounds nuw i8, ptr %3, i64 8
  store i32 %11, ptr %12, align 8
  %13 = getelementptr inbounds nuw i8, ptr %3, i64 16
  %14 = getelementptr inbounds nuw i8, ptr %3, i64 24
  store ptr @scb_error_callback, ptr %14, align 8
  %15 = getelementptr inbounds nuw i8, ptr %3, i64 32
  store ptr %3, ptr %15, align 8
  %16 = load ptr, ptr @error_context_stack, align 8
  store ptr %16, ptr %13, align 8
  store ptr %13, ptr @error_context_stack, align 8
  call void @pg_unicode_to_server(i32 noundef %0, ptr noundef nonnull %4) #22
  %17 = load ptr, ptr %13, align 8
  store ptr %17, ptr @error_context_stack, align 8
  %18 = call i64 @strlen(ptr noundef nonnull dereferenceable(1) %4) #25
  %19 = trunc i64 %18 to i32
  %20 = load ptr, ptr %1, align 8
  %21 = getelementptr inbounds nuw i8, ptr %20, i64 48
  %22 = load i32, ptr %21, align 8
  %23 = add i32 %22, %19
  %24 = getelementptr inbounds nuw i8, ptr %20, i64 52
  %25 = load i32, ptr %24, align 4
  %.not.i = icmp slt i32 %23, %25
  br i1 %.not.i, label %addlit.exit, label %26

26:                                               ; preds = %8
  %27 = add i32 %23, 1
  %28 = call range(i32 0, 33) i32 @llvm.ctpop.i32(i32 %27)
  %29 = icmp samesign ult i32 %28, 2
  %30 = call range(i32 0, 33) i32 @llvm.ctlz.i32(i32 %27, i1 true)
  %31 = xor i32 %30, 31
  %32 = shl nuw i32 2, %31
  %.0.i.i = select i1 %29, i32 %27, i32 %32
  store i32 %.0.i.i, ptr %24, align 4
  %33 = load ptr, ptr %1, align 8
  %34 = getelementptr inbounds nuw i8, ptr %33, i64 40
  %35 = load ptr, ptr %34, align 8
  %36 = getelementptr inbounds nuw i8, ptr %33, i64 52
  %37 = load i32, ptr %36, align 4
  %38 = sext i32 %37 to i64
  %39 = call ptr @repalloc(ptr noundef %35, i64 noundef %38) #22
  %40 = load ptr, ptr %1, align 8
  %41 = getelementptr inbounds nuw i8, ptr %40, i64 40
  store ptr %39, ptr %41, align 8
  %.pre.i = load ptr, ptr %1, align 8
  %.phi.trans.insert.i = getelementptr inbounds nuw i8, ptr %.pre.i, i64 48
  %.pre14.i = load i32, ptr %.phi.trans.insert.i, align 8
  br label %addlit.exit

addlit.exit:                                      ; preds = %8, %26
  %42 = phi i32 [ %.pre14.i, %26 ], [ %22, %8 ]
  %43 = phi ptr [ %.pre.i, %26 ], [ %20, %8 ]
  %44 = getelementptr inbounds nuw i8, ptr %43, i64 40
  %45 = load ptr, ptr %44, align 8
  %46 = sext i32 %42 to i64
  %47 = getelementptr inbounds i8, ptr %45, i64 %46
  %sext = shl i64 %18, 32
  %48 = ashr exact i64 %sext, 32
  call void @llvm.memcpy.p0.p0.i64(ptr align 1 %47, ptr nonnull readonly align 16 %4, i64 %48, i1 false)
  %49 = load ptr, ptr %1, align 8
  %50 = getelementptr inbounds nuw i8, ptr %49, i64 48
  %51 = load i32, ptr %50, align 8
  %52 = add i32 %51, %19
  store i32 %52, ptr %50, align 8
  call void @llvm.lifetime.end.p0(i64 17, ptr nonnull %4) #22
  call void @llvm.lifetime.end.p0(i64 40, ptr nonnull %3) #22
  ret void
}